target datalayout = "e-m:e-p270:32:32-p271:32:32-p272:64:64-i64:64-i128:128-f80:128-n8:16:32:64-S128"
target triple = "x86_64-pc-linux-gnu"

%struct.test_fixture = type { ptr, i32, ptr, ptr, ptr, ptr, i32 }

@srvcert = internal global ptr null, align 8
@libctx = internal global ptr null, align 8
@.str.14 = private unnamed_addr constant [31 x i8] c"../openssl/test/cmp_vfy_test.c\00", align 1
@ir_protected_f = internal global ptr null, align 8
@.str.75 = private unnamed_addr constant [18 x i8] c"fixture->expected\00", align 1
@.str.77 = private unnamed_addr constant [51 x i8] c"fixture->msg = load_pkimsg(ir_protected_f, libctx)\00", align 1
@.str.78 = private unnamed_addr constant [67 x i8] c"ossl_cmp_msg_check_update(fixture->cmp_ctx, fixture->msg, NULL, 0)\00", align 1
@.str.79 = private unnamed_addr constant [10 x i8] c"validated\00", align 1
@.str.80 = private unnamed_addr constant [14 x i8] c"fixture->cert\00", align 1
@__func__.test_validate_with_sender = private unnamed_addr constant [26 x i8] c"test_validate_with_sender\00", align 1
@.str.84 = private unnamed_addr constant [58 x i8] c"OSSL_CMP_CTX_set1_expected_sender(fixture->cmp_ctx, name)\00", align 1
@.str.85 = private unnamed_addr constant [53 x i8] c"OSSL_CMP_CTX_set1_srvCert(fixture->cmp_ctx, srvcert)\00", align 1

; Function Attrs: nounwind uwtable
define internal i32 @execute_validate_msg_test(ptr noundef %0) #0 {
  %2 = alloca ptr, align 8
  %3 = alloca i32, align 4
  %4 = alloca ptr, align 8
  store ptr %0, ptr %2, align 8, !tbaa !24
  call void @llvm.lifetime.start.p0(i64 4, ptr %3) #7
  %5 = load ptr, ptr %2, align 8, !tbaa !24
  %6 = getelementptr inbounds nuw %struct.test_fixture, ptr %5, i32 0, i32 1
  %7 = load i32, ptr %6, align 8, !tbaa !27
  %8 = load ptr, ptr %2, align 8, !tbaa !24
  %9 = getelementptr inbounds nuw %struct.test_fixture, ptr %8, i32 0, i32 2
  %10 = load ptr, ptr %9, align 8, !tbaa !32
  %11 = load ptr, ptr %2, align 8, !tbaa !24
  %12 = getelementptr inbounds nuw %struct.test_fixture, ptr %11, i32 0, i32 3
  %13 = load ptr, ptr %12, align 8, !tbaa !31
  %14 = call i32 @ossl_cmp_msg_check_update(ptr noundef %10, ptr noundef %13, ptr noundef null, i32 noundef 0)
  %15 = call i32 @test_int_eq(ptr noundef @.str.14, i32 noundef 139, ptr noundef @.str.75, ptr noundef @.str.78, i32 noundef %7, i32 noundef %14)
  store i32 %15, ptr %3, align 4, !tbaa !26
  call void @llvm.lifetime.start.p0(i64 8, ptr %4) #7
  %16 = load ptr, ptr %2, align 8, !tbaa !24
  %17 = getelementptr inbounds nuw %struct.test_fixture, ptr %16, i32 0, i32 2
  %18 = load ptr, ptr %17, align 8, !tbaa !32
  %19 = call ptr @OSSL_CMP_CTX_get0_validatedSrvCert(ptr noundef %18)
  store ptr %19, ptr %4, align 8, !tbaa !4
  %20 = load i32, ptr %3, align 4, !tbaa !26
  %21 = icmp ne i32 %20, 0
  br i1 %21, label %22, label %36

22:                                               ; preds = %1
  %23 = load ptr, ptr %2, align 8, !tbaa !24
  %24 = getelementptr inbounds nuw %struct.test_fixture, ptr %23, i32 0, i32 1
  %25 = load i32, ptr %24, align 8, !tbaa !27
  %26 = icmp ne i32 %25, 0
  br i1 %26, label %27, label %34

27:                                               ; preds = %22
  %28 = load ptr, ptr %4, align 8, !tbaa !4
  %29 = load ptr, ptr %2, align 8, !tbaa !24
  %30 = getelementptr inbounds nuw %struct.test_fixture, ptr %29, i32 0, i32 4
  %31 = load ptr, ptr %30, align 8, !tbaa !30
  %32 = call i32 @test_ptr_eq(ptr noundef @.str.14, i32 noundef 142, ptr noundef @.str.79, ptr noundef @.str.80, ptr noundef %28, ptr noundef %31)
  %33 = icmp ne i32 %32, 0
  br label %34

34:                                               ; preds = %27, %22
  %35 = phi i1 [ true, %22 ], [ %33, %27 ]
  br label %36

36:                                               ; preds = %34, %1
  %37 = phi i1 [ false, %1 ], [ %35, %34 ]
  %38 = zext i1 %37 to i32
  call void @llvm.lifetime.end.p0(i64 8, ptr %4) #7
  call void @llvm.lifetime.end.p0(i64 4, ptr %3) #7
  ret i32 %38
}

; Function Attrs: nounwind uwtable
define internal void @tear_down(ptr noundef %0) #0 {
  %2 = alloca ptr, align 8
  store ptr %0, ptr %2, align 8, !tbaa !24
  %3 = load ptr, ptr %2, align 8, !tbaa !24
  %4 = getelementptr inbounds nuw %struct.test_fixture, ptr %3, i32 0, i32 3
  %5 = load ptr, ptr %4, align 8, !tbaa !31
  call void @OSSL_CMP_MSG_free(ptr noundef %5)
  %6 = load ptr, ptr %2, align 8, !tbaa !24
  %7 = getelementptr inbounds nuw %struct.test_fixture, ptr %6, i32 0, i32 2
  %8 = load ptr, ptr %7, align 8, !tbaa !32
  call void @OSSL_CMP_CTX_free(ptr noundef %8)
  %9 = load ptr, ptr %2, align 8, !tbaa !24
  call void @CRYPTO_free(ptr noundef %9, ptr noundef @.str.14, i32 noundef 47)
  ret void
}

; Function Attrs: nounwind uwtable
define internal i32 @test_validate_with_sender(ptr noundef %0, i32 noundef %1) #0 {
  %3 = alloca i32, align 4
  %4 = alloca ptr, align 8
  %5 = alloca i32, align 4
  %6 = alloca ptr, align 8
  %7 = alloca i32, align 4
  %8 = alloca i32, align 4
  store ptr %0, ptr %4, align 8, !tbaa !64
  store i32 %1, ptr %5, align 4, !tbaa !26
  call void @llvm.lifetime.start.p0(i64 8, ptr %6) #7
  %9 = call ptr @set_up(ptr noundef @__func__.test_validate_with_sender)
  store ptr %9, ptr %6, align 8, !tbaa !24
  call void @llvm.lifetime.start.p0(i64 4, ptr %7) #7
  store i32 0, ptr %7, align 4, !tbaa !26
  %10 = load ptr, ptr %6, align 8, !tbaa !24
  %11 = icmp eq ptr %10, null
  br i1 %11, label %12, label %13

12:                                               ; preds = %2
  store i32 0, ptr %3, align 4
  store i32 1, ptr %8, align 4
  br label %58

13:                                               ; preds = %2
  %14 = load ptr, ptr @srvcert, align 8, !tbaa !4
  %15 = load ptr, ptr %6, align 8, !tbaa !24
  %16 = getelementptr inbounds nuw %struct.test_fixture, ptr %15, i32 0, i32 4
  store ptr %14, ptr %16, align 8, !tbaa !30
  %17 = load i32, ptr %5, align 4, !tbaa !26
  %18 = load ptr, ptr %6, align 8, !tbaa !24
  %19 = getelementptr inbounds nuw %struct.test_fixture, ptr %18, i32 0, i32 1
  store i32 %17, ptr %19, align 8, !tbaa !27
  %20 = load ptr, ptr @ir_protected_f, align 8, !tbaa !23
  %21 = load ptr, ptr @libctx, align 8, !tbaa !13
  %22 = call ptr @load_pkimsg(ptr noundef %20, ptr noundef %21)
  %23 = load ptr, ptr %6, align 8, !tbaa !24
  %24 = getelementptr inbounds nuw %struct.test_fixture, ptr %23, i32 0, i32 3
  store ptr %22, ptr %24, align 8, !tbaa !31
  %25 = call i32 @test_ptr(ptr noundef @.str.14, i32 noundef 366, ptr noundef @.str.77, ptr noundef %22)
  %26 = icmp ne i32 %25, 0
  br i1 %26, label %27, label %47

27:                                               ; preds = %13
  %28 = load ptr, ptr %6, align 8, !tbaa !24
  %29 = getelementptr inbounds nuw %struct.test_fixture, ptr %28, i32 0, i32 2
  %30 = load ptr, ptr %29, align 8, !tbaa !32
  %31 = load ptr, ptr %4, align 8, !tbaa !64
  %32 = call i32 @OSSL_CMP_CTX_set1_expected_sender(ptr noundef %30, ptr noundef %31)
  %33 = icmp ne i32 %32, 0
  %34 = zext i1 %33 to i32
  %35 = call i32 @test_true(ptr noundef @.str.14, i32 noundef 367, ptr noundef @.str.84, i32 noundef %34)
  %36 = icmp ne i32 %35, 0
  br i1 %36, label %37, label %47

37:                                               ; preds = %27
  %38 = load ptr, ptr %6, align 8, !tbaa !24
  %39 = getelementptr inbounds nuw %struct.test_fixture, ptr %38, i32 0, i32 2
  %40 = load ptr, ptr %39, align 8, !tbaa !32
  %41 = load ptr, ptr @srvcert, align 8, !tbaa !4
  %42 = call i32 @OSSL_CMP_CTX_set1_srvCert(ptr noundef %40, ptr noundef %41)
  %43 = icmp ne i32 %42, 0
  %44 = zext i1 %43 to i32
  %45 = call i32 @test_true(ptr noundef @.str.14, i32 noundef 368, ptr noundef @.str.85, i32 noundef %44)
  %46 = icmp ne i32 %45, 0
  br i1 %46, label %49, label %47

47:                                               ; preds = %37, %27, %13
  %48 = load ptr, ptr %6, align 8, !tbaa !24
  call void @tear_down(ptr noundef %48)
  store ptr null, ptr %6, align 8, !tbaa !24
  br label %49

49:                                               ; preds = %47, %37
  %50 = load ptr, ptr %6, align 8, !tbaa !24
  %51 = icmp ne ptr %50, null
  br i1 %51, label %52, label %56

52:                                               ; preds = %49
  %53 = load ptr, ptr %6, align 8, !tbaa !24
  %54 = call i32 @execute_validate_msg_test(ptr noundef %53)
  store i32 %54, ptr %7, align 4, !tbaa !26
  %55 = load ptr, ptr %6, align 8, !tbaa !24
  call void @tear_down(ptr noundef %55)
  br label %56

56:                                               ; preds = %52, %49
  %57 = load i32, ptr %7, align 4, !tbaa !26
  store i32 %57, ptr %3, align 4
  store i32 1, ptr %8, align 4
  br label %58

58:                                               ; preds = %56, %12
  call void @llvm.lifetime.end.p0(i64 4, ptr %7) #7
  call void @llvm.lifetime.end.p0(i64 8, ptr %6) #7
  %59 = load i32, ptr %3, align 4
  ret i32 %59
}