; Function Attrs: nounwind uwtable
define internal fastcc range(i32 0, 2) i32 @test_validate_with_sender(ptr noundef %0, i32 noundef range(i32 0, 2) %1) unnamed_addr #0 {
  %3 = tail call fastcc ptr @set_up(ptr noundef nonnull @__func__.test_validate_with_sender)
  %4 = icmp eq ptr %3, null
  br i1 %4, label %47, label %5

5:                                                ; preds = %2
  %6 = load ptr, ptr @srvcert, align 8, !tbaa !4
  %7 = getelementptr inbounds nuw i8, ptr %3, i64 32
  store ptr %6, ptr %7, align 8, !tbaa !29
  %8 = getelementptr inbounds nuw i8, ptr %3, i64 8
  store i32 %1, ptr %8, align 8, !tbaa !24
  %9 = load ptr, ptr @ir_protected_f, align 8, !tbaa !23
  %10 = load ptr, ptr @libctx, align 8, !tbaa !13
  %11 = tail call ptr @load_pkimsg(ptr noundef %9, ptr noundef %10) #7
  %12 = getelementptr inbounds nuw i8, ptr %3, i64 24
  store ptr %11, ptr %12, align 8, !tbaa !27
  %13 = tail call i32 @test_ptr(ptr noundef nonnull @.str.14, i32 noundef 366, ptr noundef nonnull @.str.77, ptr noundef %11) #7
  %.not = icmp eq i32 %13, 0
  br i1 %.not, label %.thread, label %14

14:                                               ; preds = %5
  %15 = getelementptr inbounds nuw i8, ptr %3, i64 16
  %16 = load ptr, ptr %15, align 8, !tbaa !28
  %17 = tail call i32 @OSSL_CMP_CTX_set1_expected_sender(ptr noundef %16, ptr noundef %0) #7
  %18 = icmp ne i32 %17, 0
  %19 = zext i1 %18 to i32
  %20 = tail call i32 @test_true(ptr noundef nonnull @.str.14, i32 noundef 367, ptr noundef nonnull @.str.84, i32 noundef %19) #7
  %.not16 = icmp eq i32 %20, 0
  br i1 %.not16, label %.thread, label %21

21:                                               ; preds = %14
  %22 = load ptr, ptr %15, align 8, !tbaa !28
  %23 = load ptr, ptr @srvcert, align 8, !tbaa !4
  %24 = tail call i32 @OSSL_CMP_CTX_set1_srvCert(ptr noundef %22, ptr noundef %23) #7
  %25 = icmp ne i32 %24, 0
  %26 = zext i1 %25 to i32
  %27 = tail call i32 @test_true(ptr noundef nonnull @.str.14, i32 noundef 368, ptr noundef nonnull @.str.85, i32 noundef %26) #7
  %.not17 = icmp eq i32 %27, 0
  br i1 %.not17, label %.thread, label %30

.thread:                                          ; preds = %5, %14, %21
  %28 = load ptr, ptr %12, align 8, !tbaa !27
  tail call void @OSSL_CMP_MSG_free(ptr noundef %28) #7
  %29 = getelementptr inbounds nuw i8, ptr %3, i64 16
  br label %.sink.split

30:                                               ; preds = %21
  %31 = load i32, ptr %8, align 8, !tbaa !24
  %32 = load ptr, ptr %15, align 8, !tbaa !28
  %33 = load ptr, ptr %12, align 8, !tbaa !27
  %34 = tail call i32 @ossl_cmp_msg_check_update(ptr noundef %32, ptr noundef %33, ptr noundef null, i32 noundef 0) #7
  %35 = tail call i32 @test_int_eq(ptr noundef nonnull @.str.14, i32 noundef 139, ptr noundef nonnull @.str.75, ptr noundef nonnull @.str.78, i32 noundef %31, i32 noundef %34) #7
  %36 = load ptr, ptr %15, align 8, !tbaa !28
  %37 = tail call ptr @OSSL_CMP_CTX_get0_validatedSrvCert(ptr noundef %36) #7
  %.not.i = icmp eq i32 %35, 0
  br i1 %.not.i, label %execute_validate_msg_test.exit, label %38

38:                                               ; preds = %30
  %39 = load i32, ptr %8, align 8, !tbaa !24
  %.not7.i = icmp eq i32 %39, 0
  br i1 %.not7.i, label %execute_validate_msg_test.exit, label %40

40:                                               ; preds = %38
  %41 = load ptr, ptr %7, align 8, !tbaa !29
  %42 = tail call i32 @test_ptr_eq(ptr noundef nonnull @.str.14, i32 noundef 142, ptr noundef nonnull @.str.79, ptr noundef nonnull @.str.80, ptr noundef %37, ptr noundef %41) #7
  %43 = icmp ne i32 %42, 0
  %44 = zext i1 %43 to i32
  br label %execute_validate_msg_test.exit

execute_validate_msg_test.exit:                   ; preds = %30, %38, %40
  %45 = phi i32 [ 0, %30 ], [ 1, %38 ], [ %44, %40 ]
  %46 = load ptr, ptr %12, align 8, !tbaa !27
  tail call void @OSSL_CMP_MSG_free(ptr noundef %46) #7
  br label %.sink.split

.sink.split:                                      ; preds = %execute_validate_msg_test.exit, %.thread
  %.sink.in = phi ptr [ %29, %.thread ], [ %15, %execute_validate_msg_test.exit ]
  %.014.ph = phi i32 [ 0, %.thread ], [ %45, %execute_validate_msg_test.exit ]
  %.sink = load ptr, ptr %.sink.in, align 8, !tbaa !28
  tail call void @OSSL_CMP_CTX_free(ptr noundef %.sink) #7
  tail call void @CRYPTO_free(ptr noundef nonnull %3, ptr noundef nonnull @.str.14, i32 noundef 47) #7
  br label %47

47:                                               ; preds = %.sink.split, %2
  %.014 = phi i32 [ 0, %2 ], [ %.014.ph, %.sink.split ]
  ret i32 %.014
}